; Function Attrs: nounwind uwtable
define ptr @X509_PUBKEY_get(ptr noundef readonly captures(address_is_null) %0) local_unnamed_addr #0 {
  %2 = icmp eq ptr %0, null
  br i1 %2, label %3, label %4

3:                                                ; preds = %1
  tail call void @ERR_new() #9
  tail call void @ERR_set_debug(ptr noundef nonnull @.str, i32 noundef 458, ptr noundef nonnull @__func__.X509_PUBKEY_get0) #9
  tail call void (i32, i32, ptr, ...) @ERR_set_error(i32 noundef 11, i32 noundef 786690, ptr noundef null) #9
  br label %X509_PUBKEY_get0.exit.thread

4:                                                ; preds = %1
  %5 = getelementptr inbounds nuw i8, ptr %0, i64 16
  %6 = load ptr, ptr %5, align 8, !tbaa !19
  %7 = icmp eq ptr %6, null
  br i1 %7, label %8, label %X509_PUBKEY_get0.exit

8:                                                ; preds = %4
  tail call void @ERR_new() #9
  tail call void @ERR_set_debug(ptr noundef nonnull @.str, i32 noundef 464, ptr noundef nonnull @__func__.X509_PUBKEY_get0) #9
  tail call void (i32, i32, ptr, ...) @ERR_set_error(i32 noundef 6, i32 noundef 114, ptr noundef null) #9
  br label %X509_PUBKEY_get0.exit.thread

X509_PUBKEY_get0.exit:                            ; preds = %4
  %9 = tail call i32 @EVP_PKEY_up_ref(ptr noundef nonnull %6) #9
  %.not5 = icmp eq i32 %9, 0
  br i1 %.not5, label %10, label %X509_PUBKEY_get0.exit.thread

10:                                               ; preds = %X509_PUBKEY_get0.exit
  tail call void @ERR_new() #9
  tail call void @ERR_set_debug(ptr noundef nonnull @.str, i32 noundef 476, ptr noundef nonnull @__func__.X509_PUBKEY_get) #9
  tail call void (i32, i32, ptr, ...) @ERR_set_error(i32 noundef 11, i32 noundef 786691, ptr noundef null) #9
  br label %X509_PUBKEY_get0.exit.thread

X509_PUBKEY_get0.exit.thread:                     ; preds = %8, %3, %10, %X509_PUBKEY_get0.exit
  %.0 = phi ptr [ %6, %X509_PUBKEY_get0.exit ], [ null, %10 ], [ null, %3 ], [ null, %8 ]
  ret ptr %.0
}